(dp0
(S'Alekhnovich'
p1
Ntp2
(dp3
I400
(lp4
F0.10149502754211426
aF0.10159492492675781
aF0.10183215141296387
aF0.10254096984863281
aF0.11385893821716309
aF0.1891171932220459
aF0.18948912620544434
aF0.19050884246826172
aF0.19060111045837402
aF0.1919398307800293
asI100
(lp5
F0.036708831787109375
aF0.03910517692565918
aF0.03956484794616699
aF0.04023385047912598
aF0.04173588752746582
aF0.06811308860778809
aF0.06844687461853027
aF0.07112884521484375
aF0.12629199028015137
aF0.12949895858764648
asI70
(lp6
F0.030380964279174805
aF0.03316807746887207
aF0.0358431339263916
aF0.05372214317321777
aF0.05578804016113281
aF0.05648922920227051
aF0.0567169189453125
aF0.05838298797607422
aF0.06614804267883301
aF0.11432290077209473
asI40
(lp7
F0.02322697639465332
aF0.02380514144897461
aF0.025112152099609375
aF0.04028797149658203
aF0.04041695594787598
aF0.04042696952819824
aF0.04053688049316406
aF0.044480085372924805
aF0.0746760368347168
aF0.08288097381591797
asI700
(lp8
F0.16609811782836914
aF0.16642498970031738
aF0.16682791709899902
aF0.30646300315856934
aF0.30700111389160156
aF0.3078949451446533
aF0.30829310417175293
aF0.3090810775756836
aF0.5918939113616943
aF0.5919530391693115
asI10
(lp9
F0.01062917709350586
aF0.010712146759033203
aF0.010741949081420898
aF0.010776996612548828
aF0.010962963104248047
aF0.011979818344116211
aF0.018157005310058594
aF0.01819610595703125
aF0.03299307823181152
aF0.03309202194213867
asI300
(lp10
F0.08098602294921875
aF0.08125710487365723
aF0.0823209285736084
aF0.15077996253967285
aF0.15268611907958984
aF0.15326809883117676
aF0.16302108764648438
aF0.1689920425415039
aF0.2904489040374756
aF0.290924072265625
asI80
(lp11
F0.034234046936035156
aF0.03724789619445801
aF0.03752398490905762
aF0.040863037109375
aF0.06211400032043457
aF0.06440019607543945
aF0.07026505470275879
aF0.07048678398132324
aF0.08295202255249023
aF0.12488102912902832
asI200
(lp12
F0.05978584289550781
aF0.06119513511657715
aF0.0696718692779541
aF0.10930681228637695
aF0.11336779594421387
aF0.11384797096252441
aF0.20963191986083984
aF0.2096397876739502
aF0.20987915992736816
aF0.21117115020751953
asI50
(lp13
F0.023639917373657227
aF0.023759126663208008
aF0.023787975311279297
aF0.025650978088378906
aF0.027172088623046875
aF0.027920961380004883
aF0.04134511947631836
aF0.04139208793640137
aF0.04139900207519531
aF0.041786909103393555
asI20
(lp14
F0.01574993133544922
aF0.02820611000061035
aF0.02822709083557129
aF0.028239965438842773
aF0.028248071670532227
aF0.028293132781982422
aF0.028362035751342773
aF0.053047895431518555
aF0.05306100845336914
aF0.053362131118774414
asI600
(lp15
F0.1437969207763672
aF0.1440291404724121
aF0.14441895484924316
aF0.15195202827453613
aF0.26877808570861816
aF0.269273042678833
aF0.27304697036743164
aF0.5157699584960938
aF0.5166349411010742
aF0.5177340507507324
asI500
(lp16
F0.12221503257751465
aF0.12537193298339844
aF0.22703909873962402
aF0.22751116752624512
aF0.22751307487487793
aF0.22778701782226562
aF0.22790193557739258
aF0.22818493843078613
aF0.2578160762786865
aF0.44159579277038574
asI90
(lp17
F0.0346829891204834
aF0.038049936294555664
aF0.03914904594421387
aF0.0421450138092041
aF0.06264805793762207
aF0.0656578540802002
aF0.06762194633483887
aF0.06774306297302246
aF0.06944894790649414
aF0.07096004486083984
asI60
(lp18
F0.028079986572265625
aF0.028334856033325195
aF0.05029296875
aF0.05060291290283203
aF0.05226016044616699
aF0.052459001541137695
aF0.055819034576416016
aF0.06831908226013184
aF0.09322714805603027
aF0.10387706756591797
asI30
(lp19
F0.0189359188079834
aF0.019032955169677734
aF0.03218412399291992
aF0.03220319747924805
aF0.03232312202453613
aF0.03412008285522461
aF0.035392045974731445
aF0.04618096351623535
aF0.05852985382080078
aF0.05872797966003418
assS'Roth--Ruckenstein'
p20
(dp21
I400
(lp22
F0.24787306785583496
aF0.24928998947143555
aF0.25581812858581543
aF0.257551908493042
aF0.2658829689025879
aF0.49259519577026367
aF0.49277591705322266
aF0.4956681728363037
aF0.5017027854919434
aF0.5528740882873535
asI100
(lp23
F0.037088871002197266
aF0.03724312782287598
aF0.03731894493103027
aF0.03904604911804199
aF0.042806148529052734
aF0.07595705986022949
aF0.07665014266967773
aF0.08093881607055664
aF0.1470639705657959
aF0.14753103256225586
asI70
(lp24
F0.02399897575378418
aF0.02431011199951172
aF0.025490999221801758
aF0.04781317710876465
aF0.04784512519836426
aF0.04928112030029297
aF0.0517880916595459
aF0.052149057388305664
aF0.05366706848144531
aF0.09997105598449707
asI40
(lp25
F0.012553930282592773
aF0.012573003768920898
aF0.012668132781982422
aF0.02482295036315918
aF0.024928808212280273
aF0.02509903907775879
aF0.025207042694091797
aF0.02709794044494629
aF0.04870915412902832
aF0.048726797103881836
asI700
(lp26
F0.6100490093231201
aF0.616408109664917
aF0.6216437816619873
aF1.213040828704834
aF1.2152159214019775
aF1.2181260585784912
aF1.2226381301879883
aF1.229062795639038
aF2.428252935409546
aF2.432237148284912
asI10
(lp27
F0.002701997756958008
aF0.002702951431274414
aF0.0027310848236083984
aF0.002741098403930664
aF0.002791881561279297
aF0.0032351016998291016
aF0.0050508975982666016
aF0.005136966705322266
aF0.00956583023071289
aF0.009653091430664062
asI300
(lp28
F0.1604750156402588
aF0.1610550880432129
aF0.16266393661499023
aF0.36788415908813477
aF0.36951589584350586
aF0.37006711959838867
aF0.3709549903869629
aF0.37203001976013184
aF0.6883759498596191
aF0.6897342205047607
asI80
(lp29
F0.028222084045410156
aF0.02823495864868164
aF0.031070947647094727
aF0.03174281120300293
aF0.05617809295654297
aF0.05777406692504883
aF0.059918880462646484
aF0.06022906303405762
aF0.06046700477600098
aF0.12231802940368652
asI200
(lp30
F0.09029102325439453
aF0.09050416946411133
aF0.09413385391235352
aF0.1809248924255371
aF0.18748807907104492
aF0.3185849189758301
aF0.35944485664367676
aF0.36000800132751465
aF0.36100196838378906
aF0.36473798751831055
asI50
(lp31
F0.016206026077270508
aF0.016235828399658203
aF0.016276121139526367
aF0.016340017318725586
aF0.016399145126342773
aF0.017560958862304688
aF0.03180098533630371
aF0.03186202049255371
aF0.03208112716674805
aF0.03352212905883789
asI20
(lp32
F0.005878925323486328
aF0.011276006698608398
aF0.011353015899658203
aF0.011371135711669922
aF0.01143193244934082
aF0.011456966400146484
aF0.011507987976074219
aF0.022510051727294922
aF0.022567033767700195
aF0.022956132888793945
asI600
(lp33
F0.4671308994293213
aF0.46890807151794434
aF0.47067999839782715
aF0.4773130416870117
aF0.9379739761352539
aF0.94063401222229
aF0.9415550231933594
aF1.9216499328613281
aF1.9260790348052979
aF1.9521300792694092
asI500
(lp34
F0.34967684745788574
aF0.3541250228881836
aF0.6991779804229736
aF0.6996099948883057
aF0.7009589672088623
aF0.7011549472808838
aF0.704948902130127
aF0.7055990695953369
aF0.7096340656280518
aF1.4029860496520996
asI90
(lp35
F0.03402090072631836
aF0.034345149993896484
aF0.036972999572753906
aF0.03785204887390137
aF0.06686091423034668
aF0.0675809383392334
aF0.0681300163269043
aF0.07077598571777344
aF0.07140612602233887
aF0.07217001914978027
asI60
(lp36
F0.019921064376831055
aF0.02185988426208496
aF0.039266109466552734
aF0.03934812545776367
aF0.04010295867919922
aF0.04259610176086426
aF0.04300713539123535
aF0.04335188865661621
aF0.07814502716064453
aF0.08498191833496094
asI30
(lp37
F0.009077072143554688
aF0.010362863540649414
aF0.017663002014160156
aF0.017721176147460938
aF0.017735958099365234
aF0.017772197723388672
aF0.019800901412963867
aF0.020442962646484375
aF0.03506898880004883
aF0.03626608848571777
ass(g1
csage.rings.integer
make_integer
p38
(S'p'
p39
tp40
Rp41
tp42
(dp43
I400
(lp44
F0.1110239028930664
aF0.11124300956726074
aF0.11163711547851562
aF0.11239981651306152
aF0.1248159408569336
aF0.20758891105651855
aF0.2080061435699463
aF0.20867586135864258
aF0.23723220825195312
aF0.24122309684753418
asI100
(lp45
F0.04245400428771973
aF0.04327702522277832
aF0.045346975326538086
aF0.04734492301940918
aF0.04778480529785156
aF0.08398294448852539
aF0.08602690696716309
aF0.08745908737182617
aF0.1588459014892578
aF0.3017289638519287
asI70
(lp46
F0.03400397300720215
aF0.035856008529663086
aF0.03809404373168945
aF0.06337594985961914
aF0.0635380744934082
aF0.06516599655151367
aF0.06534600257873535
aF0.06542515754699707
aF0.06586503982543945
aF0.1322798728942871
asI40
(lp47
F0.01794910430908203
aF0.017993927001953125
aF0.019867897033691406
aF0.03218197822570801
aF0.03253507614135742
aF0.032679080963134766
aF0.03384208679199219
aF0.03651905059814453
aF0.06162714958190918
aF0.06381082534790039
asI700
(lp48
F0.19008183479309082
aF0.1910409927368164
aF0.19146490097045898
aF0.3568739891052246
aF0.35822105407714844
aF0.3583099842071533
aF0.3583500385284424
aF0.36382389068603516
aF0.6906471252441406
aF0.6923379898071289
asI10
(lp49
F0.002683877944946289
aF0.0027959346771240234
aF0.002802133560180664
aF0.002852201461791992
aF0.0028641223907470703
aF0.003361940383911133
aF0.005121946334838867
aF0.005254030227661133
aF0.009572029113769531
aF0.009670019149780273
asI300
(lp50
F0.09728193283081055
aF0.09749507904052734
aF0.09752607345581055
aF0.18360686302185059
aF0.18472599983215332
aF0.18495512008666992
aF0.1900620460510254
aF0.20910000801086426
aF0.35468196868896484
aF0.35576486587524414
asI80
(lp51
F0.03688192367553711
aF0.0381770133972168
aF0.03846096992492676
aF0.04212784767150879
aF0.06986212730407715
aF0.07008600234985352
aF0.07491898536682129
aF0.07685685157775879
aF0.07690215110778809
aF0.15034699440002441
asI200
(lp52
F0.06891107559204102
aF0.06899309158325195
aF0.0743260383605957
aF0.12818694114685059
aF0.13266801834106445
aF0.24761509895324707
aF0.24827194213867188
aF0.2495098114013672
aF0.25216102600097656
aF0.25252699851989746
asI50
(lp53
F0.021576881408691406
aF0.021854877471923828
aF0.02227306365966797
aF0.023005962371826172
aF0.023705005645751953
aF0.023904800415039062
aF0.03951907157897949
aF0.039901018142700195
aF0.03998589515686035
aF0.04384899139404297
asI20
(lp54
F0.008507013320922852
aF0.016186952590942383
aF0.016241073608398438
aF0.016315937042236328
aF0.016386032104492188
aF0.016390085220336914
aF0.016412973403930664
aF0.03146791458129883
aF0.03177309036254883
aF0.031891822814941406
asI600
(lp55
F0.15974903106689453
aF0.16022109985351562
aF0.16078591346740723
aF0.18346786499023438
aF0.299360990524292
aF0.2995178699493408
aF0.30155181884765625
aF0.5783548355102539
aF0.578956127166748
aF0.5963518619537354
asI500
(lp56
F0.13163495063781738
aF0.1334850788116455
aF0.24544596672058105
aF0.2454969882965088
aF0.24585604667663574
aF0.2459099292755127
aF0.24593806266784668
aF0.24660301208496094
aF0.24674010276794434
aF0.47465991973876953
asI90
(lp57
F0.04398989677429199
aF0.044795989990234375
aF0.04761505126953125
aF0.059001922607421875
aF0.08216595649719238
aF0.08756685256958008
aF0.08880901336669922
aF0.08939003944396973
aF0.08993220329284668
aF0.09123086929321289
asI60
(lp58
F0.028378963470458984
aF0.028985977172851562
aF0.05495405197143555
aF0.05531191825866699
aF0.0556490421295166
aF0.055976152420043945
aF0.05781102180480957
aF0.062011003494262695
aF0.10240387916564941
aF0.11230587959289551
asI30
(lp59
F0.014286994934082031
aF0.014425039291381836
aF0.02536487579345703
aF0.025552034378051758
aF0.02557206153869629
aF0.0255739688873291
aF0.028224945068359375
aF0.04467606544494629
aF0.047621965408325195
aF0.04986906051635742
ass(g1
g38
(S'34'
p60
tp61
Rp62
tp63
(dp64
I400
(lp65
F0.19602608680725098
aF0.19612979888916016
aF0.19653606414794922
aF0.1971290111541748
aF0.208327054977417
aF0.38327503204345703
aF0.3839900493621826
aF0.38580799102783203
aF0.40280604362487793
aF0.4216439723968506
asI100
(lp66
F0.04015684127807617
aF0.040170907974243164
aF0.04161500930786133
aF0.044363975524902344
aF0.044886112213134766
aF0.08333611488342285
aF0.08435606956481934
aF0.08599996566772461
aF0.18161606788635254
aF0.24741482734680176
asI70
(lp67
F0.0277099609375
aF0.029731035232543945
aF0.030410051345825195
aF0.0537569522857666
aF0.05385017395019531
aF0.05537581443786621
aF0.05645179748535156
aF0.057199954986572266
aF0.06944012641906738
aF0.1186978816986084
asI40
(lp68
F0.012721061706542969
aF0.013746976852416992
aF0.01452493667602539
aF0.024670124053955078
aF0.024744033813476562
aF0.024751901626586914
aF0.02481389045715332
aF0.02744889259338379
aF0.048722028732299805
aF0.05415821075439453
asI700
(lp69
F0.424083948135376
aF0.42500996589660645
aF0.4257340431213379
aF0.8348760604858398
aF0.8367969989776611
aF0.839447021484375
aF0.8399507999420166
aF0.9558498859405518
aF1.6600580215454102
aF1.6611979007720947
asI10
(lp70
F0.002777099609375
aF0.0027840137481689453
aF0.0028090476989746094
aF0.002817869186401367
aF0.002866983413696289
aF0.0033540725708007812
aF0.005090951919555664
aF0.005110979080200195
aF0.00960993766784668
aF0.009629011154174805
asI300
(lp71
F0.17342185974121094
aF0.1735680103302002
aF0.17447400093078613
aF0.34210801124572754
aF0.34284496307373047
aF0.34301018714904785
aF0.3797779083251953
aF0.3908720016479492
aF0.6768169403076172
aF0.714277982711792
asI80
(lp72
F0.031265974044799805
aF0.03223395347595215
aF0.032698869705200195
aF0.03524208068847656
aF0.062168121337890625
aF0.06307411193847656
aF0.0637509822845459
aF0.06801891326904297
aF0.06853699684143066
aF0.12456798553466797
asI200
(lp73
F0.09847187995910645
aF0.09861111640930176
aF0.10395503044128418
aF0.1932079792022705
aF0.20000886917114258
aF0.3282041549682617
aF0.3779759407043457
aF0.3784511089324951
aF0.37906408309936523
aF0.3934669494628906
asI50
(lp74
F0.01628708839416504
aF0.0163118839263916
aF0.01633596420288086
aF0.016337871551513672
aF0.0164339542388916
aF0.016733884811401367
aF0.03201913833618164
aF0.03214001655578613
aF0.03267788887023926
aF0.032872915267944336
asI20
(lp75
F0.00592494010925293
aF0.011252164840698242
aF0.011285066604614258
aF0.011300086975097656
aF0.011307001113891602
aF0.011337041854858398
aF0.011451959609985352
aF0.021891117095947266
aF0.022059917449951172
aF0.022817134857177734
asI600
(lp76
F0.3412919044494629
aF0.3415508270263672
aF0.3434300422668457
aF0.3947780132293701
aF0.6703529357910156
aF0.6705038547515869
aF0.6715710163116455
aF1.3324179649353027
aF1.3353500366210938
aF1.335810899734497
asI500
(lp77
F0.2653799057006836
aF0.2662839889526367
aF0.5204830169677734
aF0.520521879196167
aF0.5215089321136475
aF0.5223689079284668
aF0.5228190422058105
aF0.5234990119934082
aF0.5240190029144287
aF1.03694486618042
asI90
(lp78
F0.035562992095947266
aF0.037941932678222656
aF0.03947710990905762
aF0.04058980941772461
aF0.07160496711730957
aF0.07708501815795898
aF0.07774901390075684
aF0.07847809791564941
aF0.0797109603881836
aF0.07976102828979492
asI60
(lp79
F0.022912979125976562
aF0.023329973220825195
aF0.04534316062927246
aF0.04558086395263672
aF0.046859025955200195
aF0.04749798774719238
aF0.04793214797973633
aF0.04958486557006836
aF0.08934903144836426
aF0.10151910781860352
asI30
(lp80
F0.009195089340209961
aF0.009339094161987305
aF0.017919063568115234
aF0.017946958541870117
aF0.017986059188842773
aF0.01864910125732422
aF0.019797086715698242
aF0.030994176864624023
aF0.03495621681213379
aF0.036062002182006836
ass(g1
g38
(S'a'
p81
tp82
Rp83
tp84
(dp85
I400
(lp86
F0.1042470932006836
aF0.10430312156677246
aF0.10436201095581055
aF0.10570192337036133
aF0.10677909851074219
aF0.1947629451751709
aF0.19502711296081543
aF0.1963951587677002
aF0.1965630054473877
aF0.20435500144958496
asI100
(lp87
F0.04030585289001465
aF0.04190802574157715
aF0.043929100036621094
aF0.045181989669799805
aF0.07319998741149902
aF0.07569098472595215
aF0.07799005508422852
aF0.0828390121459961
aF0.13881301879882812
aF0.14363884925842285
asI70
(lp88
F0.037444114685058594
aF0.039356231689453125
aF0.03965497016906738
aF0.06073594093322754
aF0.06343793869018555
aF0.0647120475769043
aF0.06502103805541992
aF0.0658268928527832
aF0.06874203681945801
aF0.1369020938873291
asI40
(lp89
F0.020932912826538086
aF0.021001100540161133
aF0.02225804328918457
aF0.03815197944641113
aF0.038362979888916016
aF0.038388967514038086
aF0.03839397430419922
aF0.03905797004699707
aF0.07424712181091309
aF0.08207583427429199
asI700
(lp90
F0.16311192512512207
aF0.16338109970092773
aF0.1638331413269043
aF0.3027629852294922
aF0.30315589904785156
aF0.3031599521636963
aF0.30346012115478516
aF0.3051760196685791
aF0.5835108757019043
aF0.5843961238861084
asI10
(lp91
F0.005140066146850586
aF0.005357027053833008
aF0.00536799430847168
aF0.005380868911743164
aF0.005608081817626953
aF0.006294965744018555
aF0.009925127029418945
aF0.010561943054199219
aF0.018913984298706055
aF0.018934965133666992
asI300
(lp92
F0.0870978832244873
aF0.08752608299255371
aF0.0875999927520752
aF0.16271209716796875
aF0.16278314590454102
aF0.16369009017944336
aF0.16410207748413086
aF0.1859450340270996
aF0.3128809928894043
aF0.31505489349365234
asI80
(lp93
F0.034716129302978516
aF0.036375999450683594
aF0.03707313537597656
aF0.039031028747558594
aF0.06289196014404297
aF0.06624984741210938
aF0.0675809383392334
aF0.06799912452697754
aF0.07456111907958984
aF0.11635804176330566
asI200
(lp94
F0.0635519027709961
aF0.06384611129760742
aF0.06413793563842773
aF0.11838603019714355
aF0.12406015396118164
aF0.12939214706420898
aF0.22560501098632812
aF0.22565984725952148
aF0.2261040210723877
aF0.2261509895324707
asI50
(lp95
F0.025482892990112305
aF0.02549600601196289
aF0.025564908981323242
aF0.02570199966430664
aF0.02878117561340332
aF0.029175996780395508
aF0.04747295379638672
aF0.04755401611328125
aF0.04832792282104492
aF0.05352592468261719
asI20
(lp96
F0.010991096496582031
aF0.018567800521850586
aF0.0185849666595459
aF0.018613100051879883
aF0.01866602897644043
aF0.018716096878051758
aF0.018774032592773438
aF0.033946990966796875
aF0.03397202491760254
aF0.03403520584106445
asI600
(lp97
F0.1472790241241455
aF0.1475071907043457
aF0.1477680206298828
aF0.1489870548248291
aF0.27487707138061523
aF0.275554895401001
aF0.276047945022583
aF0.5310609340667725
aF0.5320360660552979
aF0.5320379734039307
asI500
(lp98
F0.12212705612182617
aF0.12244677543640137
aF0.22703814506530762
aF0.22736191749572754
aF0.2273731231689453
aF0.22752904891967773
aF0.22766494750976562
aF0.22907805442810059
aF0.26522207260131836
aF0.44147491455078125
asI90
(lp99
F0.03601813316345215
aF0.03660106658935547
aF0.038836002349853516
aF0.04282212257385254
aF0.06771087646484375
aF0.06808304786682129
aF0.07294011116027832
aF0.07537508010864258
aF0.07610392570495605
aF0.08057498931884766
asI60
(lp100
F0.03005695343017578
aF0.031449079513549805
aF0.05623793601989746
aF0.05856513977050781
aF0.05874991416931152
aF0.06116294860839844
aF0.06241011619567871
aF0.0637819766998291
aF0.10996317863464355
aF0.1205751895904541
asI30
(lp101
F0.01657700538635254
aF0.01688694953918457
aF0.030279159545898438
aF0.03030681610107422
aF0.030447959899902344
aF0.03192615509033203
aF0.033859968185424805
aF0.03829598426818848
aF0.05716991424560547
aF0.0603032112121582
ass(g1
g38
(S'5'
p102
tp103
Rp104
tp105
(dp106
I400
(lp107
F0.10793685913085938
aF0.10800909996032715
aF0.10812807083129883
aF0.10878705978393555
aF0.12257814407348633
aF0.2018740177154541
aF0.20209288597106934
aF0.20331096649169922
aF0.2036759853363037
aF0.20803308486938477
asI100
(lp108
F0.040598154067993164
aF0.04328203201293945
aF0.04419279098510742
aF0.044384002685546875
aF0.07383608818054199
aF0.07692480087280273
aF0.07770895957946777
aF0.0829310417175293
aF0.1432647705078125
aF0.1663529872894287
asI70
(lp109
F0.03299999237060547
aF0.033087968826293945
aF0.03493785858154297
aF0.057843923568725586
aF0.058032989501953125
aF0.06114602088928223
aF0.0612030029296875
aF0.06268191337585449
aF0.07452106475830078
aF0.12066793441772461
asI40
(lp110
F0.024101972579956055
aF0.024585962295532227
aF0.027552127838134766
aF0.03957200050354004
aF0.039605140686035156
aF0.039614200592041016
aF0.039736032485961914
aF0.04522299766540527
aF0.07332706451416016
aF0.08182311058044434
asI700
(lp111
F0.17365097999572754
aF0.17378711700439453
aF0.1738109588623047
aF0.32396817207336426
aF0.3240058422088623
aF0.3247671127319336
aF0.3255650997161865
aF0.32592201232910156
aF0.6243999004364014
aF0.6252851486206055
asI10
(lp112
F0.007626056671142578
aF0.007725954055786133
aF0.00773310661315918
aF0.007790088653564453
aF0.007791996002197266
aF0.010267972946166992
aF0.012154102325439453
aF0.012285947799682617
aF0.02118992805480957
aF0.02119898796081543
asI300
(lp113
F0.08695697784423828
aF0.08708405494689941
aF0.08806681632995605
aF0.1620330810546875
aF0.16236186027526855
aF0.16379690170288086
aF0.1661539077758789
aF0.18487906455993652
aF0.3154919147491455
aF0.3177950382232666
asI80
(lp114
F0.035479068756103516
aF0.03762698173522949
aF0.03779101371765137
aF0.03921008110046387
aF0.06499695777893066
aF0.07050299644470215
aF0.07090497016906738
aF0.07091712951660156
aF0.07101011276245117
aF0.12291908264160156
asI200
(lp115
F0.06412601470947266
aF0.06428694725036621
aF0.06806516647338867
aF0.1189718246459961
aF0.12065482139587402
aF0.14017987251281738
aF0.22935819625854492
aF0.23027396202087402
aF0.23132991790771484
aF0.2321329116821289
asI50
(lp116
F0.025957107543945312
aF0.02597498893737793
aF0.02608180046081543
aF0.02620100975036621
aF0.026716947555541992
aF0.0299069881439209
aF0.04555702209472656
aF0.04560708999633789
aF0.04567384719848633
aF0.04744315147399902
asI20
(lp117
F0.014127016067504883
aF0.02491593360900879
aF0.025117158889770508
aF0.025177955627441406
aF0.025178909301757812
aF0.025215864181518555
aF0.025256872177124023
aF0.04749488830566406
aF0.04766201972961426
aF0.04789304733276367
asI600
(lp118
F0.1532580852508545
aF0.15352106094360352
aF0.15390896797180176
aF0.1751549243927002
aF0.2866990566253662
aF0.2874782085418701
aF0.28899121284484863
aF0.5543849468231201
aF0.5548930168151855
aF0.5561249256134033
asI500
(lp119
F0.12447690963745117
aF0.12456011772155762
aF0.2310009002685547
aF0.23102498054504395
aF0.2314929962158203
aF0.23244500160217285
aF0.23269104957580566
aF0.23317480087280273
aF0.24647808074951172
aF0.4486420154571533
asI90
(lp120
F0.03724217414855957
aF0.04051089286804199
aF0.04216790199279785
aF0.04577493667602539
aF0.07423806190490723
aF0.07579588890075684
aF0.07792019844055176
aF0.0783240795135498
aF0.0788569450378418
aF0.08326888084411621
asI60
(lp121
F0.029167890548706055
aF0.029755115509033203
aF0.052976131439208984
aF0.054289817810058594
aF0.054875850677490234
aF0.05679893493652344
aF0.056802988052368164
aF0.058184146881103516
aF0.09686899185180664
aF0.10844302177429199
asI30
(lp122
F0.018774986267089844
aF0.01888298988342285
aF0.034255027770996094
aF0.034316062927246094
aF0.03437495231628418
aF0.03506898880004883
aF0.03856086730957031
aF0.05835413932800293
aF0.0649111270904541
aF0.06530094146728516
ass.